target datalayout = "e-m:e-p270:32:32-p271:32:32-p272:64:64-i64:64-i128:128-f80:128-n8:16:32:64-S128"
target triple = "x86_64-pc-linux-gnu"

%struct._lv_image_t = type { %struct._lv_obj_t, ptr, ptr, %struct.lv_point_t, i32, i32, i32, i32, i32, %struct.lv_point_t, i16 }
%struct._lv_obj_t = type { ptr, ptr, ptr, ptr, ptr, %struct.lv_area_t, i32, i16, i16 }
%struct.lv_area_t = type { i32, i32, i32, i32 }
%struct.lv_point_t = type { i32, i32 }

; Function Attrs: nounwind uwtable
define internal void @update_align(ptr noundef %0) #0 {
  %2 = alloca ptr, align 8
  %3 = alloca ptr, align 8
  %4 = alloca i32, align 4
  %5 = alloca i32, align 4
  store ptr %0, ptr %2, align 8, !tbaa !8
  call void @llvm.lifetime.start.p0(i64 8, ptr %3) #5
  %6 = load ptr, ptr %2, align 8, !tbaa !8
  store ptr %6, ptr %3, align 8, !tbaa !10
  %7 = load ptr, ptr %3, align 8, !tbaa !10
  %8 = getelementptr inbounds nuw %struct._lv_image_t, ptr %7, i32 0, i32 10
  %9 = load i16, ptr %8, align 4
  %10 = lshr i16 %9, 8
  %11 = and i16 %10, 15
  %12 = zext i16 %11 to i32
  %13 = icmp eq i32 %12, 11
  br i1 %13, label %14, label %46

14:                                               ; preds = %1
  %15 = load ptr, ptr %2, align 8, !tbaa !8
  call void @lv_image_set_rotation(ptr noundef %15, i32 noundef 0)
  %16 = load ptr, ptr %2, align 8, !tbaa !8
  call void @lv_image_set_pivot(ptr noundef %16, i32 noundef 0, i32 noundef 0)
  %17 = load ptr, ptr %3, align 8, !tbaa !10
  %18 = getelementptr inbounds nuw %struct._lv_image_t, ptr %17, i32 0, i32 4
  %19 = load i32, ptr %18, align 8, !tbaa !21
  %20 = icmp ne i32 %19, 0
  br i1 %20, label %21, label %45

21:                                               ; preds = %14
  %22 = load ptr, ptr %3, align 8, !tbaa !10
  %23 = getelementptr inbounds nuw %struct._lv_image_t, ptr %22, i32 0, i32 5
  %24 = load i32, ptr %23, align 4, !tbaa !22
  %25 = icmp ne i32 %24, 0
  br i1 %25, label %26, label %45

26:                                               ; preds = %21
  %27 = load ptr, ptr %2, align 8, !tbaa !8
  call void @lv_obj_update_layout(ptr noundef %27)
  call void @llvm.lifetime.start.p0(i64 4, ptr %4) #5
  %28 = load ptr, ptr %2, align 8, !tbaa !8
  %29 = call i32 @lv_obj_get_width(ptr noundef %28)
  %30 = mul nsw i32 %29, 256
  %31 = load ptr, ptr %3, align 8, !tbaa !10
  %32 = getelementptr inbounds nuw %struct._lv_image_t, ptr %31, i32 0, i32 4
  %33 = load i32, ptr %32, align 8, !tbaa !21
  %34 = sdiv i32 %30, %33
  store i32 %34, ptr %4, align 4, !tbaa !28
  call void @llvm.lifetime.start.p0(i64 4, ptr %5) #5
  %35 = load ptr, ptr %2, align 8, !tbaa !8
  %36 = call i32 @lv_obj_get_height(ptr noundef %35)
  %37 = mul nsw i32 %36, 256
  %38 = load ptr, ptr %3, align 8, !tbaa !10
  %39 = getelementptr inbounds nuw %struct._lv_image_t, ptr %38, i32 0, i32 5
  %40 = load i32, ptr %39, align 4, !tbaa !22
  %41 = sdiv i32 %37, %40
  store i32 %41, ptr %5, align 4, !tbaa !28
  %42 = load ptr, ptr %2, align 8, !tbaa !8
  %43 = load i32, ptr %4, align 4, !tbaa !28
  %44 = load i32, ptr %5, align 4, !tbaa !28
  call void @scale_update(ptr noundef %42, i32 noundef %43, i32 noundef %44)
  call void @llvm.lifetime.end.p0(i64 4, ptr %5) #5
  call void @llvm.lifetime.end.p0(i64 4, ptr %4) #5
  br label %45

45:                                               ; preds = %26, %21, %14
  br label %59

46:                                               ; preds = %1
  %47 = load ptr, ptr %3, align 8, !tbaa !10
  %48 = getelementptr inbounds nuw %struct._lv_image_t, ptr %47, i32 0, i32 10
  %49 = load i16, ptr %48, align 4
  %50 = lshr i16 %49, 8
  %51 = and i16 %50, 15
  %52 = zext i16 %51 to i32
  %53 = icmp eq i32 %52, 12
  br i1 %53, label %54, label %58

54:                                               ; preds = %46
  %55 = load ptr, ptr %2, align 8, !tbaa !8
  call void @lv_image_set_rotation(ptr noundef %55, i32 noundef 0)
  %56 = load ptr, ptr %2, align 8, !tbaa !8
  call void @lv_image_set_pivot(ptr noundef %56, i32 noundef 0, i32 noundef 0)
  %57 = load ptr, ptr %2, align 8, !tbaa !8
  call void @scale_update(ptr noundef %57, i32 noundef 256, i32 noundef 256)
  br label %58

58:                                               ; preds = %54, %46
  br label %59

59:                                               ; preds = %58, %45
  call void @llvm.lifetime.end.p0(i64 8, ptr %3) #5
  ret void
}