; Function Attrs: nounwind uwtable
define internal fastcc void @update_align(ptr noundef %0) unnamed_addr #0 {
  %2 = getelementptr inbounds nuw i8, ptr %0, i64 116
  %3 = load i16, ptr %2, align 4
  %4 = lshr i16 %3, 8
  %5 = and i16 %4, 15
  switch i16 %5, label %22 [
    i16 11, label %6
    i16 12, label %21
  ]

6:                                                ; preds = %1
  tail call void @lv_image_set_rotation(ptr noundef nonnull %0, i32 noundef 0)
  tail call void @lv_image_set_pivot(ptr noundef nonnull %0, i32 noundef 0, i32 noundef 0)
  %7 = getelementptr inbounds nuw i8, ptr %0, i64 88
  %8 = load i32, ptr %7, align 8, !tbaa !17
  %.not = icmp eq i32 %8, 0
  br i1 %.not, label %22, label %9

9:                                                ; preds = %6
  %10 = getelementptr inbounds nuw i8, ptr %0, i64 92
  %11 = load i32, ptr %10, align 4, !tbaa !18
  %.not17 = icmp eq i32 %11, 0
  br i1 %.not17, label %22, label %12

12:                                               ; preds = %9
  tail call void @lv_obj_update_layout(ptr noundef nonnull %0) #6
  %13 = tail call i32 @lv_obj_get_width(ptr noundef nonnull %0) #6
  %14 = shl nsw i32 %13, 8
  %15 = load i32, ptr %7, align 8, !tbaa !17
  %16 = sdiv i32 %14, %15
  %17 = tail call i32 @lv_obj_get_height(ptr noundef nonnull %0) #6
  %18 = shl nsw i32 %17, 8
  %19 = load i32, ptr %10, align 4, !tbaa !18
  %20 = sdiv i32 %18, %19
  tail call fastcc void @scale_update(ptr noundef nonnull %0, i32 noundef %16, i32 noundef %20)
  br label %22

21:                                               ; preds = %1
  tail call void @lv_image_set_rotation(ptr noundef nonnull %0, i32 noundef 0)
  tail call void @lv_image_set_pivot(ptr noundef nonnull %0, i32 noundef 0, i32 noundef 0)
  tail call fastcc void @scale_update(ptr noundef nonnull %0, i32 noundef 256, i32 noundef 256)
  br label %22

22:                                               ; preds = %1, %21, %6, %9, %12
  ret void
}